(dp0
S'METTS MARK'
p1
(dp2
S'to_messages'
p3
I807
sS'salary_total_ratio'
p4
F0.34448926237513267
sS'deferral_payments'
p5
S'NaN'
p6
sS'res_total_stock_ratio'
p7
F1.0
sS'salary_bonus_ratio'
p8
F0.6096466666666667
sS'expenses'
p9
I94299
sS'to_fraction_messages'
p10
F0.0012391573729863693
sS'poi'
p11
I00
sS'deferred_income'
p12
g6
sS'email_address'
p13
S'mark.metts@enron.com'
p14
sS'long_term_incentive'
p15
g6
sS'from_fraction_messages'
p16
F0.04708798017348203
sS'restricted_stock_deferred'
p17
g6
sS'shared_receipt_with_poi'
p18
I702
sS'loan_advances'
p19
g6
sS'from_messages'
p20
I29
sS'other'
p21
I1740
sS'director_fees'
p22
g6
sS'bonus'
p23
I600000
sS'total_stock_value'
p24
I585062
sS'from_poi_to_this_person'
p25
I38
sS'from_this_person_to_poi'
p26
I1
sS'net_salary'
p27
I965788
sS'restricted_stock'
p28
I585062
sS'salary'
p29
I365788
sS'total_payments'
p30
I1061827
sS'exercised_stock_options'
p31
g6
sS'bonus_total_ratio'
p32
F0.5650638004119315
sS'shared_fraction_messages'
p33
F0.8698884758364313
ssS'BAXTER JOHN C'
p34
(dp35
g3
g6
sg4
F0.047406059588491506
sg5
I1295738
sg7
F0.3711398141700032
sg8
F0.222585
sg9
I11200
sg10
F0.0
sg11
I00
sg12
I-1386055
sg13
g6
sg15
I1586055
sg16
F0.0
sg17
g6
sg18
g6
sg19
g6
sg20
g6
sg21
I2660303
sg22
g6
sg23
I1200000
sg24
I10623258
sg25
g6
sg26
g6
sg27
I1467102
sg28
I3942714
sg29
I267102
sg30
I5634343
sg31
I6680544
sg32
F0.21297957898551792
sg33
F0.0
ssS'ELLIOTT STEVEN'
p36
(dp37
g3
g6
sg4
F0.8073727712835046
sg5
g6
sg7
F0.2677739122753036
sg8
F0.48840285714285714
sg9
I78552
sg10
F0.0
sg11
I00
sg12
I-400729
sg13
S'steven.elliott@enron.com'
p38
sg15
g6
sg16
F0.0
sg17
g6
sg18
g6
sg19
g6
sg20
g6
sg21
I12961
sg22
g6
sg23
I350000
sg24
I6678735
sg25
g6
sg26
g6
sg27
I520941
sg28
I1788391
sg29
I170941
sg30
I211725
sg31
I4890344
sg32
F1.6530877317274766
sg33
F0.0
ssS'CORDES WILLIAM R'
p39
(dp40
g3
I764
sg4
I0
sg5
g6
sg7
F0.3721253919099197
sg8
I0
sg9
g6
sg10
F0.0
sg11
I00
sg12
g6
sg13
S'bill.cordes@enron.com'
p41
sg15
g6
sg16
F0.013089005235602094
sg17
g6
sg18
I58
sg19
g6
sg20
I12
sg21
g6
sg22
g6
sg23
F0.0
sg24
I1038185
sg25
I10
sg26
I0
sg27
F0.0
sg28
I386335
sg29
F0.0
sg30
I0
sg31
I651850
sg32
I0
sg33
F0.07591623036649214
ssS'HANNON KEVIN P'
p42
(dp43
g3
I1045
sg4
F0.8427716310680957
sg5
g6
sg7
F0.13347759723927077
sg8
F0.16219533333333333
sg9
I34039
sg10
F0.020095693779904306
sg11
I01
sg12
I-3117011
sg13
S'kevin.hannon@enron.com'
p44
sg15
I1617011
sg16
F0.03062200956937799
sg17
g6
sg18
I1035
sg19
g6
sg20
I32
sg21
I11350
sg22
g6
sg23
I1500000
sg24
I6391065
sg25
I32
sg26
I21
sg27
I1743293
sg28
I853064
sg29
I243293
sg30
I288682
sg31
I5538001
sg32
F5.196028848352166
sg33
F0.9904306220095693
ssS'MORDAUNT KRISTINA M'
p45
(dp46
g3
g6
sg4
F0.42495409866321304
sg5
g6
sg7
F1.0
sg8
F0.8218246153846154
sg9
I35018
sg10
F0.0
sg11
I00
sg12
g6
sg13
S'kristina.mordaunt@enron.com'
p47
sg15
g6
sg16
F0.0
sg17
g6
sg18
g6
sg19
g6
sg20
g6
sg21
I1411
sg22
g6
sg23
I325000
sg24
I208510
sg25
g6
sg26
g6
sg27
I592093
sg28
I208510
sg29
I267093
sg30
I628522
sg31
g6
sg32
F0.5170861163173286
sg33
F0.0
ssS'MEYER ROCKFORD G'
p48
(dp49
g3
I232
sg4
F0.0
sg5
I1848227
sg7
F0.4837295331074316
sg8
I0
sg9
g6
sg10
F0.0
sg11
I00
sg12
g6
sg13
S'rockford.meyer@enron.com'
p50
sg15
g6
sg16
F0.0
sg17
g6
sg18
I22
sg19
g6
sg20
I28
sg21
g6
sg22
g6
sg23
F0.0
sg24
I955873
sg25
I0
sg26
I0
sg27
F0.0
sg28
I462384
sg29
F0.0
sg30
I1848227
sg31
I493489
sg32
F0.0
sg33
F0.09482758620689655
ssS'MCMAHON JEFFREY'
p51
(dp52
g3
I2355
sg4
F0.09035821756873738
sg5
g6
sg7
F0.3360491443932273
sg8
F0.14248
sg9
I137108
sg10
F0.011040339702760084
sg11
I00
sg12
g6
sg13
S'jeffrey.mcmahon@enron.com'
p53
sg15
I694862
sg16
F0.024628450106157114
sg17
g6
sg18
I2228
sg19
g6
sg20
I48
sg21
I297353
sg22
g6
sg23
I2600000
sg24
I1662855
sg25
I58
sg26
I26
sg27
I2970448
sg28
I558801
sg29
I370448
sg30
I4099771
sg31
I1104054
sg32
F0.6341817628350461
sg33
F0.9460721868365181
ssS'HORTON STANLEY C'
p54
(dp55
g3
I2350
sg4
F0.0
sg5
I3131860
sg7
F0.28195924619741786
sg8
I0
sg9
g6
sg10
F0.006382978723404255
sg11
I00
sg12
g6
sg13
S'stanley.horton@enron.com'
p56
sg15
g6
sg16
F0.01872340425531915
sg17
g6
sg18
I1074
sg19
g6
sg20
I1073
sg21
g6
sg22
g6
sg23
F0.0
sg24
I7256648
sg25
I44
sg26
I15
sg27
F0.0
sg28
I2046079
sg29
F0.0
sg30
I3131860
sg31
I5210569
sg32
F0.0
sg33
F0.4570212765957447
ssS'PIPER GREGORY F'
p57
(dp58
g3
I1238
sg4
F0.11342524785210191
sg5
I1130036
sg7
F0.46524895204989264
sg8
F0.4927275
sg9
I43057
sg10
F0.03877221324717286
sg11
I00
sg12
I-33333
sg13
S'greg.piper@enron.com'
p59
sg15
g6
sg16
F0.049273021001615507
sg17
I-409554
sg18
I742
sg19
g6
sg20
I222
sg21
I778
sg22
g6
sg23
I400000
sg24
I880290
sg25
I61
sg26
I48
sg27
I597091
sg28
I409554
sg29
I197091
sg30
I1737629
sg31
I880290
sg32
F0.23019873632403695
sg33
F0.5993537964458805
ssS'HUMPHREY GENE E'
p60
(dp61
g3
I128
sg4
F0.04216598542556925
sg5
I2964506
sg7
F0.0
sg8
I0
sg9
I4994
sg10
F0.1328125
sg11
I00
sg12
g6
sg13
S'gene.humphrey@enron.com'
p62
sg15
g6
sg16
F0.078125
sg17
g6
sg18
I119
sg19
g6
sg20
I17
sg21
g6
sg22
g6
sg23
F0.0
sg24
I2282768
sg25
I10
sg26
I17
sg27
F130724.0
sg28
I0
sg29
I130724
sg30
I3100224
sg31
I2282768
sg32
F0.0
sg33
F0.9296875
ssS'UMANOFF ADAM S'
p63
(dp64
g3
I111
sg4
F0.2552843485976075
sg5
g6
sg7
I0
sg8
F0.36588145800316957
sg9
I53122
sg10
F0.0
sg11
I00
sg12
g6
sg13
S'adam.umanoff@enron.com'
p65
sg15
g6
sg16
F0.10810810810810811
sg17
g6
sg18
I41
sg19
g6
sg20
I18
sg21
g6
sg22
g6
sg23
I788750
sg24
I0
sg25
I12
sg26
I0
sg27
I1077339
sg28
I0
sg29
I288589
sg30
I1130461
sg31
g6
sg32
F0.6977242027809893
sg33
F0.36936936936936937
ssS'BLACHMAN JEREMY M'
p66
(dp67
g3
I2475
sg4
F0.12335799209364538
sg5
g6
sg7
F0.19808268210747793
sg8
F0.2924070588235294
sg9
I84208
sg10
F0.0008080808080808081
sg11
I00
sg12
g6
sg13
S'jeremy.blachman@enron.com'
p68
sg15
I831809
sg16
F0.010101010101010102
sg17
g6
sg18
I2326
sg19
g6
sg20
I14
sg21
I272
sg22
g6
sg23
I850000
sg24
I954354
sg25
I25
sg26
I2
sg27
I1098546
sg28
I189041
sg29
I248546
sg30
I2014835
sg31
I765313
sg32
F0.4218707735372872
sg33
F0.9397979797979797
ssS'SUNDE MARTIN'
p69
(dp70
g3
I2647
sg4
F0.16665124115001434
sg5
g6
sg7
F1.0
sg8
F0.36783714285714286
sg9
g6
sg10
F0.004911220249338874
sg11
I00
sg12
g6
sg13
S'marty.sunde@enron.com'
p71
sg15
I476451
sg16
F0.013978088401964487
sg17
g6
sg18
I2565
sg19
g6
sg20
I38
sg21
I111122
sg22
g6
sg23
I700000
sg24
I698920
sg25
I37
sg26
I13
sg27
I957486
sg28
I698920
sg29
I257486
sg30
I1545059
sg31
g6
sg32
F0.4530571324460749
sg33
F0.9690215338118625
ssS'GIBBS DANA R'
p72
(dp73
g3
I169
sg4
F0.0
sg5
I504610
sg7
F0.0
sg8
I0
sg9
g6
sg10
F0.0
sg11
I00
sg12
g6
sg13
S'dana.gibbs@enron.com'
p74
sg15
I461912
sg16
F0.0
sg17
g6
sg18
I23
sg19
g6
sg20
I12
sg21
g6
sg22
g6
sg23
F0.0
sg24
I2218275
sg25
I0
sg26
I0
sg27
F0.0
sg28
I0
sg29
F0.0
sg30
I966522
sg31
I2218275
sg32
F0.0
sg33
F0.13609467455621302
ssS'LOWRY CHARLES P'
p75
(dp76
g3
g6
sg4
I0
sg5
g6
sg7
F0.41290686584006125
sg8
I0
sg9
g6
sg10
F0.0
sg11
I00
sg12
g6
sg13
g6
sg15
g6
sg16
F0.0
sg17
I-153686
sg18
g6
sg19
g6
sg20
g6
sg21
g6
sg22
g6
sg23
F0.0
sg24
I372205
sg25
g6
sg26
g6
sg27
F0.0
sg28
I153686
sg29
F0.0
sg30
I0
sg31
I372205
sg32
I0
sg33
F0.0
ssS'COLWELL WESLEY'
p77
(dp78
g3
I1758
sg4
F0.19360765031428986
sg5
I27610
sg7
F1.0
sg8
F0.24045166666666667
sg9
I16514
sg10
F0.006257110352673493
sg11
I01
sg12
I-144062
sg13
S'wes.colwell@enron.com'
p79
sg15
g6
sg16
F0.13651877133105803
sg17
g6
sg18
I1132
sg19
g6
sg20
I40
sg21
I101740
sg22
g6
sg23
I1200000
sg24
I698242
sg25
I240
sg26
I11
sg27
I1488542
sg28
I698242
sg29
I288542
sg30
I1490344
sg31
g6
sg32
F0.8051832328643588
sg33
F0.6439135381114903
ssS'MULLER MARK S'
p80
(dp81
g3
I136
sg4
F0.07859103642331366
sg5
I842924
sg7
F0.2544577823450363
sg8
F0.22877636363636364
sg9
g6
sg10
F0.0
sg11
I00
sg12
I-719000
sg13
S's..muller@enron.com'
p82
sg15
I1725545
sg16
F0.08823529411764706
sg17
g6
sg18
I114
sg19
g6
sg20
I16
sg21
I947
sg22
g6
sg23
I1100000
sg24
I1416848
sg25
I12
sg26
I0
sg27
I1351654
sg28
I360528
sg29
I251654
sg30
I3202070
sg31
I1056320
sg32
F0.3435277804670104
sg33
F0.8382352941176471
ssS'JACKSON CHARLENE R'
p83
(dp84
g3
I258
sg4
F0.5235334032447104
sg5
g6
sg7
F0.7449992076997802
sg8
F1.154232
sg9
I10181
sg10
F0.07364341085271318
sg11
I00
sg12
g6
sg13
S'charlene.jackson@enron.com'
p85
sg15
g6
sg16
F0.09689922480620156
sg17
g6
sg18
I117
sg19
g6
sg20
I56
sg21
I2435
sg22
g6
sg23
I250000
sg24
I725735
sg25
I25
sg26
I19
sg27
I538558
sg28
I540672
sg29
I288558
sg30
I551174
sg31
I185063
sg32
F0.453577273238578
sg33
F0.45348837209302323
ssS'WESTFAHL RICHARD K'
p86
(dp87
g3
g6
sg4
F0.08363872542266133
sg5
g6
sg7
F1.0
sg8
I0
sg9
I51870
sg10
F0.0
sg11
I00
sg12
I-10800
sg13
S'dick.westfahl@enron.com'
p88
sg15
I256191
sg16
F0.0
sg17
g6
sg18
g6
sg19
g6
sg20
g6
sg21
I401130
sg22
g6
sg23
F0.0
sg24
I384930
sg25
g6
sg26
g6
sg27
F63744.0
sg28
I384930
sg29
I63744
sg30
I762135
sg31
g6
sg32
F0.0
sg33
F0.0
ssS'WALTERS GARETH W'
p89
(dp90
g3
g6
sg4
F0.0
sg5
I53625
sg7
F0.0
sg8
I0
sg9
I33785
sg10
F0.0
sg11
I00
sg12
g6
sg13
g6
sg15
g6
sg16
F0.0
sg17
g6
sg18
g6
sg19
g6
sg20
g6
sg21
g6
sg22
g6
sg23
F0.0
sg24
I1030329
sg25
g6
sg26
g6
sg27
F0.0
sg28
I0
sg29
F0.0
sg30
I87410
sg31
I1030329
sg32
F0.0
sg33
F0.0
ssS'WALLS JR ROBERT H'
p91
(dp92
g3
I671
sg4
F0.1985184402761872
sg5
g6
sg7
F0.2631723664209356
sg8
F0.4201070588235294
sg9
I50936
sg10
F0.0
sg11
I00
sg12
g6
sg13
S'rob.walls@enron.com'
p93
sg15
I540751
sg16
F0.02533532041728763
sg17
g6
sg18
I215
sg19
g6
sg20
I146
sg21
I2
sg22
g6
sg23
I850000
sg24
I5898997
sg25
I17
sg26
I0
sg27
I1207091
sg28
I1552453
sg29
I357091
sg30
I1798780
sg31
I4346544
sg32
F0.47254250102847484
sg33
F0.3204172876304024
ssS'KITCHEN LOUISE'
p94
(dp95
g3
I8305
sg4
F0.07819964674439903
sg5
g6
sg7
F0.8518815008142295
sg8
F0.08756193548387096
sg9
I5774
sg10
F0.023359422034918725
sg11
I00
sg12
g6
sg13
S'louise.kitchen@enron.com'
p96
sg15
g6
sg16
F0.030222757375075255
sg17
g6
sg18
I3669
sg19
g6
sg20
I1728
sg21
I93925
sg22
g6
sg23
I3100000
sg24
I547143
sg25
I251
sg26
I194
sg27
I3371442
sg28
I466101
sg29
I271442
sg30
I3471141
sg31
I81042
sg32
F0.8930780973748977
sg33
F0.441782059000602
ssS'CHAN RONNIE'
p97
(dp98
g3
g6
sg4
I0
sg5
g6
sg7
I0
sg8
I0
sg9
g6
sg10
F0.0
sg11
I00
sg12
I-98784
sg13
g6
sg15
g6
sg16
F0.0
sg17
I-32460
sg18
g6
sg19
g6
sg20
g6
sg21
g6
sg22
I98784
sg23
F0.0
sg24
I0
sg25
g6
sg26
g6
sg27
F0.0
sg28
I32460
sg29
F0.0
sg30
I0
sg31
g6
sg32
I0
sg33
F0.0
ssS'BELFER ROBERT'
p99
(dp100
g3
g6
sg4
F0.0
sg5
I-102500
sg7
F-0.0
sg8
I0
sg9
g6
sg10
F0.0
sg11
I00
sg12
g6
sg13
g6
sg15
g6
sg16
F0.0
sg17
I44093
sg18
g6
sg19
g6
sg20
g6
sg21
g6
sg22
I3285
sg23
F0.0
sg24
I-44093
sg25
g6
sg26
g6
sg27
F0.0
sg28
I0
sg29
F0.0
sg30
I102500
sg31
I3285
sg32
F0.0
sg33
F0.0
ssS'SHANKMAN JEFFREY A'
p101
(dp102
g3
I3221
sg4
F0.10007891527369252
sg5
g6
sg7
F0.3041150366668517
sg8
F0.152055
sg9
I178979
sg10
F0.025768394908413535
sg11
I00
sg12
g6
sg13
S'jeffrey.shankman@enron.com'
p103
sg15
I554422
sg16
F0.029183483390251473
sg17
g6
sg18
I1730
sg19
g6
sg20
I2681
sg21
I1191
sg22
g6
sg23
I2000000
sg24
I2072035
sg25
I94
sg26
I83
sg27
I2304110
sg28
I630137
sg29
I304110
sg30
I3038702
sg31
I1441898
sg32
F0.6581757605714545
sg33
F0.5371002794163303
ssS'WODRASKA JOHN'
p104
(dp105
g3
g6
sg4
F0.0
sg5
g6
sg7
I0
sg8
I0
sg9
g6
sg10
F0.0
sg11
I00
sg12
g6
sg13
S'john.wodraska@enron.com'
p106
sg15
g6
sg16
F0.0
sg17
g6
sg18
g6
sg19
g6
sg20
g6
sg21
I189583
sg22
g6
sg23
F0.0
sg24
I0
sg25
g6
sg26
g6
sg27
F0.0
sg28
I0
sg29
F0.0
sg30
I189583
sg31
g6
sg32
F0.0
sg33
F0.0
ssS'BERGSIEKER RICHARD P'
p107
(dp108
g3
I383
sg4
F0.3036632463440252
sg5
g6
sg7
F1.0
sg8
F0.751688
sg9
I59175
sg10
F0.0
sg11
I00
sg12
I-485813
sg13
S'rick.bergsieker@enron.com'
p109
sg15
I180250
sg16
F0.010443864229765013
sg17
g6
sg18
I233
sg19
g6
sg20
I59
sg21
I427316
sg22
g6
sg23
I250000
sg24
I659249
sg25
I4
sg26
I0
sg27
I437922
sg28
I659249
sg29
I187922
sg30
I618850
sg31
g6
sg32
F0.4039751151329078
sg33
F0.608355091383812
ssS'URQUHART JOHN A'
p110
(dp111
g3
g6
sg4
F0.0
sg5
g6
sg7
I0
sg8
I0
sg9
I228656
sg10
F0.0
sg11
I00
sg12
I-36666
sg13
g6
sg15
g6
sg16
F0.0
sg17
g6
sg18
g6
sg19
g6
sg20
g6
sg21
g6
sg22
I36666
sg23
F0.0
sg24
I0
sg25
g6
sg26
g6
sg27
F0.0
sg28
I0
sg29
F0.0
sg30
I228656
sg31
g6
sg32
F0.0
sg33
F0.0
ssS'BIBI PHILIPPE A'
p112
(dp113
g3
I1607
sg4
F0.10432981554439774
sg5
g6
sg7
F0.20505408348772328
sg8
F0.213625
sg9
I38559
sg10
F0.004978220286247666
sg11
I00
sg12
g6
sg13
S'philippe.bibi@enron.com'
p114
sg15
I369721
sg16
F0.01431238332296204
sg17
g6
sg18
I1336
sg19
g6
sg20
I40
sg21
I425688
sg22
g6
sg23
I1000000
sg24
I1843816
sg25
I23
sg26
I8
sg27
I1213625
sg28
I378082
sg29
I213625
sg30
I2047593
sg31
I1465734
sg32
F0.4883783056496091
sg33
F0.8313627878033603
ssS'RIEKER PAULA H'
p115
(dp116
g3
I1328
sg4
F0.22673187153125285
sg5
I214678
sg7
F0.14781954330817812
sg8
F0.3560014285714286
sg9
I33271
sg10
F0.03614457831325301
sg11
I01
sg12
I-100000
sg13
S'paula.rieker@enron.com'
p117
sg15
g6
sg16
F0.02635542168674699
sg17
g6
sg18
I1258
sg19
g6
sg20
I82
sg21
I1950
sg22
g6
sg23
I700000
sg24
I1918887
sg25
I35
sg26
I48
sg27
I949201
sg28
I283649
sg29
I249201
sg30
I1099100
sg31
I1635238
sg32
F0.6368847238649804
sg33
F0.947289156626506
ssS'WHALEY DAVID A'
p118
(dp119
g3
g6
sg4
I0
sg5
g6
sg7
F0.0
sg8
I0
sg9
g6
sg10
F0.0
sg11
I00
sg12
g6
sg13
g6
sg15
g6
sg16
F0.0
sg17
g6
sg18
g6
sg19
g6
sg20
g6
sg21
g6
sg22
g6
sg23
F0.0
sg24
I98718
sg25
g6
sg26
g6
sg27
F0.0
sg28
I0
sg29
F0.0
sg30
I0
sg31
I98718
sg32
I0
sg33
F0.0
ssS'BECK SALLY W'
p120
(dp121
g3
I7315
sg4
F0.23871389830228631
sg5
g6
sg7
F1.0
sg8
F0.3304714285714286
sg9
I37172
sg10
F0.052768284347231714
sg11
I00
sg12
g6
sg13
S'sally.beck@enron.com'
p122
sg15
g6
sg16
F0.01968557758031442
sg17
g6
sg18
I2639
sg19
g6
sg20
I4343
sg21
I566
sg22
g6
sg23
I700000
sg24
I126027
sg25
I144
sg26
I386
sg27
I931330
sg28
I126027
sg29
I231330
sg30
I969068
sg31
g6
sg32
F0.7223435300721931
sg33
F0.36076555023923446
ssS'HAUG DAVID L'
p123
(dp124
g3
I573
sg4
F0.0
sg5
g6
sg7
F1.0
sg8
I0
sg9
I475
sg10
F0.012216404886561954
sg11
I00
sg12
g6
sg13
S'david.haug@enron.com'
p125
sg15
g6
sg16
F0.006980802792321117
sg17
g6
sg18
I471
sg19
g6
sg20
I19
sg21
g6
sg22
g6
sg23
F0.0
sg24
I2217299
sg25
I4
sg26
I7
sg27
F0.0
sg28
I2217299
sg29
F0.0
sg30
I475
sg31
g6
sg32
F0.0
sg33
F0.8219895287958116
ssS'ECHOLS JOHN B'
p126
(dp127
g3
g6
sg4
F0.06769058998842635
sg5
g6
sg7
F0.40389180338592645
sg8
F0.911225
sg9
I21530
sg10
F0.0
sg11
I00
sg12
g6
sg13
S'john.echols@enron.com'
p128
sg15
I2234774
sg16
F0.0
sg17
g6
sg18
g6
sg19
g6
sg20
g6
sg21
I53775
sg22
g6
sg23
I200000
sg24
I1008941
sg25
g6
sg26
g6
sg27
I382245
sg28
I407503
sg29
I182245
sg30
I2692324
sg31
I601438
sg32
F0.07428526432925606
sg33
F0.0
ssS'MENDELSOHN JOHN'
p129
(dp130
g3
g6
sg4
F0.0
sg5
g6
sg7
I0
sg8
I0
sg9
I148
sg10
F0.0
sg11
I00
sg12
I-103750
sg13
g6
sg15
g6
sg16
F0.0
sg17
g6
sg18
g6
sg19
g6
sg20
g6
sg21
g6
sg22
I103750
sg23
F0.0
sg24
I0
sg25
g6
sg26
g6
sg27
F0.0
sg28
I0
sg29
F0.0
sg30
I148
sg31
g6
sg32
F0.0
sg33
F0.0
ssS'HICKERSON GARY J'
p131
(dp132
g3
I1320
sg4
F0.10173331104488624
sg5
g6
sg7
F1.0
sg8
F0.12458117647058824
sg9
I98849
sg10
F0.0007575757575757576
sg11
I00
sg12
g6
sg13
S'gary.hickerson@enron.com'
p133
sg15
I69223
sg16
F0.030303030303030304
sg17
g6
sg18
I900
sg19
g6
sg20
I27
sg21
I1936
sg22
g6
sg23
I1700000
sg24
I441096
sg25
I40
sg26
I1
sg27
I1911788
sg28
I441096
sg29
I211788
sg30
I2081796
sg31
g6
sg32
F0.8166025873812804
sg33
F0.6818181818181818
ssS'CLINE KENNETH W'
p134
(dp135
g3
g6
sg4
I0
sg5
g6
sg7
F3.4935256809379585
sg8
I0
sg9
g6
sg10
F0.0
sg11
I00
sg12
g6
sg13
g6
sg15
g6
sg16
F0.0
sg17
I-472568
sg18
g6
sg19
g6
sg20
g6
sg21
g6
sg22
g6
sg23
F0.0
sg24
I189518
sg25
g6
sg26
g6
sg27
F0.0
sg28
I662086
sg29
F0.0
sg30
I0
sg31
g6
sg32
I0
sg33
F0.0
ssS'LEWIS RICHARD'
p136
(dp137
g3
I952
sg4
I0
sg5
g6
sg7
F0.0
sg8
I0
sg9
g6
sg10
F0.0
sg11
I00
sg12
g6
sg13
S'richard.lewis@enron.com'
p138
sg15
g6
sg16
F0.01050420168067227
sg17
g6
sg18
I739
sg19
g6
sg20
I26
sg21
g6
sg22
g6
sg23
F0.0
sg24
I850477
sg25
I10
sg26
I0
sg27
F0.0
sg28
I0
sg29
F0.0
sg30
I0
sg31
I850477
sg32
I0
sg33
F0.7762605042016807
ssS'HAYES ROBERT E'
p139
(dp140
g3
I504
sg4
F0.0
sg5
I7961
sg7
F1.0
sg8
I0
sg9
g6
sg10
F0.0
sg11
I00
sg12
g6
sg13
S'robert.hayes@enron.com'
p141
sg15
g6
sg16
F0.031746031746031744
sg17
g6
sg18
I50
sg19
g6
sg20
I12
sg21
g6
sg22
g6
sg23
F0.0
sg24
I151418
sg25
I16
sg26
I0
sg27
F0.0
sg28
I151418
sg29
F0.0
sg30
I7961
sg31
g6
sg32
F0.0
sg33
F0.0992063492063492
ssS'MCCARTY DANNY J'
p142
(dp143
g3
I1433
sg4
I0
sg5
g6
sg7
F0.12459103660280052
sg8
I0
sg9
g6
sg10
F0.0013956734124214933
sg11
I00
sg12
g6
sg13
S'danny.mccarty@enron.com'
p144
sg15
g6
sg16
F0.017445917655268667
sg17
g6
sg18
I508
sg19
g6
sg20
I215
sg21
g6
sg22
g6
sg23
F0.0
sg24
I758931
sg25
I25
sg26
I2
sg27
F0.0
sg28
I94556
sg29
F0.0
sg30
I0
sg31
I664375
sg32
I0
sg33
F0.35450104675505933
ssS'KOPPER MICHAEL J'
p145
(dp146
g3
g6
sg4
F0.08456004873686766
sg5
g6
sg7
F1.0
sg8
F0.28038125
sg9
I118134
sg10
F0.0
sg11
I01
sg12
g6
sg13
S'michael.kopper@enron.com'
p147
sg15
I602671
sg16
F0.0
sg17
g6
sg18
g6
sg19
g6
sg20
g6
sg21
I907502
sg22
g6
sg23
I800000
sg24
I985032
sg25
g6
sg26
g6
sg27
I1024305
sg28
I985032
sg29
I224305
sg30
I2652612
sg31
g6
sg32
F0.30158952760524343
sg33
F0.0
ssS'LEFF DANIEL P'
p148
(dp149
g3
I2822
sg4
F0.10274871369867744
sg5
g6
sg7
F1.0
sg8
F0.273746
sg9
g6
sg10
F0.004961020552799433
sg11
I00
sg12
g6
sg13
S'dan.leff@enron.com'
p150
sg15
I1387399
sg16
F0.02374202693125443
sg17
g6
sg18
I2672
sg19
g6
sg20
I63
sg21
I3083
sg22
g6
sg23
I1000000
sg24
I360528
sg25
I67
sg26
I14
sg27
I1273746
sg28
I360528
sg29
I273746
sg30
I2664228
sg31
g6
sg32
F0.3753432514034084
sg33
F0.9468462083628633
ssS'LAVORATO JOHN J'
p151
(dp152
g3
I7259
sg4
F0.03254324841831629
sg5
g6
sg7
F0.19510758747965995
sg8
F0.042411
sg9
I49537
sg10
F0.05661936905909905
sg11
I00
sg12
g6
sg13
S'john.lavorato@enron.com'
p153
sg15
I2035380
sg16
F0.07273729163796666
sg17
g6
sg18
I3962
sg19
g6
sg20
I2585
sg21
I1552
sg22
g6
sg23
I8000000
sg24
I5167144
sg25
I528
sg26
I411
sg27
I8339288
sg28
I1008149
sg29
I339288
sg30
I10425757
sg31
I4158995
sg32
F0.767330372269371
sg33
F0.5458052073288332
ssS'BERBERIAN DAVID'
p154
(dp155
g3
g6
sg4
F0.9479503138212663
sg5
g6
sg7
F0.34857812911049657
sg8
I0
sg9
I11892
sg10
F0.0
sg11
I00
sg12
g6
sg13
S'david.berberian@enron.com'
p156
sg15
g6
sg16
F0.0
sg17
g6
sg18
g6
sg19
g6
sg20
g6
sg21
g6
sg22
g6
sg23
F0.0
sg24
I2493616
sg25
g6
sg26
g6
sg27
F216582.0
sg28
I869220
sg29
I216582
sg30
I228474
sg31
I1624396
sg32
F0.0
sg33
F0.0
ssS'DETMERING TIMOTHY J'
p157
(dp158
g3
g6
sg4
F0.17474927007935526
sg5
I875307
sg7
F0.15536931699102258
sg8
F0.49529411764705883
sg9
I52255
sg10
F0.0
sg11
I00
sg12
I-775241
sg13
S'timothy.detmering@enron.com'
p159
sg15
I415657
sg16
F0.0
sg17
I-315068
sg18
g6
sg19
g6
sg20
g6
sg21
I1105
sg22
g6
sg23
I425000
sg24
I2027865
sg25
g6
sg26
g6
sg27
I635500
sg28
I315068
sg29
I210500
sg30
I1204583
sg31
I2027865
sg32
F0.3528191913716199
sg33
F0.0
ssS'WAKEHAM JOHN'
p160
(dp161
g3
g6
sg4
F0.0
sg5
g6
sg7
I0
sg8
I0
sg9
I103773
sg10
F0.0
sg11
I00
sg12
g6
sg13
g6
sg15
g6
sg16
F0.0
sg17
g6
sg18
g6
sg19
g6
sg20
g6
sg21
g6
sg22
I109298
sg23
F0.0
sg24
I0
sg25
g6
sg26
g6
sg27
F0.0
sg28
I0
sg29
F0.0
sg30
I213071
sg31
g6
sg32
F0.0
sg33
F0.0
ssS'POWERS WILLIAM'
p162
(dp163
g3
I653
sg4
I0
sg5
g6
sg7
I0
sg8
I0
sg9
g6
sg10
F0.0
sg11
I00
sg12
I-17500
sg13
S'ken.powers@enron.com'
p164
sg15
g6
sg16
F0.0
sg17
g6
sg18
I12
sg19
g6
sg20
I26
sg21
g6
sg22
I17500
sg23
F0.0
sg24
I0
sg25
I0
sg26
I0
sg27
F0.0
sg28
I0
sg29
F0.0
sg30
I0
sg31
g6
sg32
I0
sg33
F0.018376722817764167
ssS'GOLD JOSEPH'
p165
(dp166
g3
g6
sg4
F0.12709987503336093
sg5
g6
sg7
F0.5026099262657373
sg8
F0.36384
sg9
g6
sg10
F0.0
sg11
I00
sg12
g6
sg13
S'joe.gold@enron.com'
p167
sg15
I304805
sg16
F0.0
sg17
g6
sg18
g6
sg19
g6
sg20
g6
sg21
I819288
sg22
g6
sg23
I750000
sg24
I877611
sg25
g6
sg26
g6
sg27
I1022880
sg28
I441096
sg29
I272880
sg30
I2146973
sg31
I436515
sg32
F0.34932903208377564
sg33
F0.0
ssS'BANNANTINE JAMES M'
p168
(dp169
g3
I566
sg4
F0.0005206303884426602
sg5
g6
sg7
F0.33518763372541976
sg8
I0
sg9
I56301
sg10
F0.0
sg11
I00
sg12
I-5104
sg13
S'james.bannantine@enron.com'
p170
sg15
g6
sg16
F0.06890459363957598
sg17
I-560222
sg18
I465
sg19
g6
sg20
I29
sg21
I864523
sg22
g6
sg23
F0.0
sg24
I5243487
sg25
I39
sg26
I0
sg27
F477.0
sg28
I1757552
sg29
I477
sg30
I916197
sg31
I4046157
sg32
F0.0
sg33
F0.8215547703180212
ssS'DUNCAN JOHN H'
p171
(dp172
g3
g6
sg4
F0.0
sg5
g6
sg7
F0.0
sg8
I0
sg9
g6
sg10
F0.0
sg11
I00
sg12
I-25000
sg13
g6
sg15
g6
sg16
F0.0
sg17
g6
sg18
g6
sg19
g6
sg20
g6
sg21
g6
sg22
I102492
sg23
F0.0
sg24
I371750
sg25
g6
sg26
g6
sg27
F0.0
sg28
I0
sg29
F0.0
sg30
I77492
sg31
I371750
sg32
F0.0
sg33
F0.0
ssS'SHAPIRO RICHARD S'
p173
(dp174
g3
I15149
sg4
F0.25443384130082036
sg5
g6
sg7
F0.3841576654937533
sg8
F0.41396307692307693
sg9
I137767
sg10
F0.004290712258234867
sg11
I00
sg12
g6
sg13
S'richard.shapiro@enron.com'
p175
sg15
g6
sg16
F0.0048848108786058485
sg17
g6
sg18
I4527
sg19
g6
sg20
I1215
sg21
I705
sg22
g6
sg23
I650000
sg24
I987001
sg25
I74
sg26
I65
sg27
I919076
sg28
I379164
sg29
I269076
sg30
I1057548
sg31
I607837
sg32
F0.6146293123338137
sg33
F0.29883160604660375
ssS'SHERRIFF JOHN R'
p176
(dp177
g3
I3187
sg4
F0.09890233584629565
sg5
g6
sg7
F0.41336894875074387
sg8
F0.28585333333333335
sg9
g6
sg10
F0.0072168183244430495
sg11
I00
sg12
g6
sg13
S'john.sherriff@enron.com'
p178
sg15
I554422
sg16
F0.008785691873235017
sg17
g6
sg18
I2103
sg19
g6
sg20
I92
sg21
I1852186
sg22
g6
sg23
I1500000
sg24
I3128982
sg25
I28
sg26
I23
sg27
I1928780
sg28
I1293424
sg29
I428780
sg30
I4335388
sg31
I1835558
sg32
F0.34598979376240374
sg33
F0.6598682146219015
ssS'SHELBY REX'
p179
(dp180
g3
I225
sg4
F0.10571664541627888
sg5
g6
sg7
F0.34857812911049657
sg8
F1.05922
sg9
I22884
sg10
F0.06222222222222222
sg11
I01
sg12
I-4167
sg13
S'rex.shelby@enron.com'
p181
sg15
g6
sg16
F0.057777777777777775
sg17
g6
sg18
I91
sg19
g6
sg20
I39
sg21
I1573324
sg22
g6
sg23
I200000
sg24
I2493616
sg25
I13
sg26
I14
sg27
I411844
sg28
I869220
sg29
I211844
sg30
I2003885
sg31
I1624396
sg32
F0.09980612659908128
sg33
F0.40444444444444444
ssS'LEMAISTRE CHARLES'
p182
(dp183
g3
g6
sg4
F0.0
sg5
g6
sg7
F0.0
sg8
I0
sg9
g6
sg10
F0.0
sg11
I00
sg12
I-25000
sg13
g6
sg15
g6
sg16
F0.0
sg17
g6
sg18
g6
sg19
g6
sg20
g6
sg21
g6
sg22
I112492
sg23
F0.0
sg24
I412878
sg25
g6
sg26
g6
sg27
F0.0
sg28
I0
sg29
F0.0
sg30
I87492
sg31
I412878
sg32
F0.0
sg33
F0.0
ssS'DEFFNER JOSEPH M'
p184
(dp185
g3
I714
sg4
F0.17053834487928257
sg5
g6
sg7
F0.8908492503658667
sg8
F0.343535
sg9
I41626
sg10
F0.0056022408963585435
sg11
I00
sg12
g6
sg13
S'joseph.deffner@enron.com'
p186
sg15
I335349
sg16
F0.16106442577030813
sg17
g6
sg18
I552
sg19
g6
sg20
I74
sg21
I25553
sg22
g6
sg23
I600000
sg24
I159211
sg25
I115
sg26
I4
sg27
I806121
sg28
I141833
sg29
I206121
sg30
I1208649
sg31
I17378
sg32
F0.49642203815996205
sg33
F0.773109243697479
ssS'KISHKILL JOSEPH G'
p187
(dp188
g3
g6
sg4
F0.2471939122934447
sg5
g6
sg7
F1.0
sg8
I0
sg9
I116335
sg10
F0.0
sg11
I00
sg12
I-51042
sg13
S'joe.kishkill@enron.com'
p189
sg15
g6
sg16
F0.0
sg17
g6
sg18
g6
sg19
g6
sg20
g6
sg21
I465357
sg22
g6
sg23
F0.0
sg24
I1034346
sg25
g6
sg26
g6
sg27
F174246.0
sg28
I1034346
sg29
I174246
sg30
I704896
sg31
g6
sg32
F0.0
sg33
F0.0
ssS'WHALLEY LAWRENCE G'
p190
(dp191
g3
I6019
sg4
F0.10910869608904103
sg5
g6
sg7
F0.4599628203805902
sg8
F0.17012133333333335
sg9
I57838
sg10
F0.003987373317826882
sg11
I00
sg12
g6
sg13
S'greg.whalley@enron.com'
p192
sg15
I808346
sg16
F0.03090214321315833
sg17
g6
sg18
I3920
sg19
g6
sg20
I556
sg21
I301026
sg22
g6
sg23
I3000000
sg24
I6079137
sg25
I186
sg26
I24
sg27
I3510364
sg28
I2796177
sg29
I510364
sg30
I4677574
sg31
I3282960
sg32
F0.6413581057189047
sg33
F0.6512709752450573
ssS'MCCONNELL MICHAEL S'
p193
(dp194
g3
I3329
sg4
F0.17371478715729402
sg5
g6
sg7
F0.47666430527533965
sg8
F0.3318527272727273
sg9
I81364
sg10
F0.058275758486031844
sg11
I00
sg12
g6
sg13
S'mike.mcconnell@enron.com'
p195
sg15
I554422
sg16
F0.02763592670471613
sg17
g6
sg18
I2189
sg19
g6
sg20
I2742
sg21
I540
sg22
g6
sg23
I1100000
sg24
I3101279
sg25
I92
sg26
I194
sg27
I1465038
sg28
I1478269
sg29
I365038
sg30
I2101364
sg31
I1623010
sg32
F0.5234695178940917
sg33
F0.657554821267648
ssS'PIRO JIM'
p196
(dp197
g3
I58
sg4
I0
sg5
g6
sg7
F1.0
sg8
I0
sg9
g6
sg10
F0.017241379310344827
sg11
I00
sg12
g6
sg13
S'jim.piro@enron.com'
p198
sg15
g6
sg16
F0.0
sg17
g6
sg18
I3
sg19
g6
sg20
I16
sg21
g6
sg22
g6
sg23
F0.0
sg24
I47304
sg25
I0
sg26
I1
sg27
F0.0
sg28
I47304
sg29
F0.0
sg30
I0
sg31
g6
sg32
I0
sg33
F0.05172413793103448
ssS'DELAINEY DAVID W'
p199
(dp200
g3
I3093
sg4
F0.07690914386942319
sg5
g6
sg7
F0.3660908827558386
sg8
F0.121721
sg9
I86174
sg10
F0.19689621726479145
sg11
I01
sg12
g6
sg13
S'david.delainey@enron.com'
p201
sg15
I1294981
sg16
F0.02133850630455868
sg17
g6
sg18
I2097
sg19
g6
sg20
I3069
sg21
I1661
sg22
g6
sg23
I3000000
sg24
I3614261
sg25
I66
sg26
I609
sg27
I3365163
sg28
I1323148
sg29
I365163
sg30
I4747979
sg31
I2291113
sg32
F0.6318477819720769
sg33
F0.6779825412221144
ssS'SULLIVAN-SHAKLOVITZ COLLEEN'
p202
(dp203
g3
g6
sg4
F0.162883897229816
sg5
I181993
sg7
F0.0
sg8
F1.62779
sg9
g6
sg10
F0.0
sg11
I00
sg12
g6
sg13
g6
sg15
I554422
sg16
F0.0
sg17
g6
sg18
g6
sg19
g6
sg20
g6
sg21
I162
sg22
g6
sg23
I100000
sg24
I1362375
sg25
g6
sg26
g6
sg27
I262779
sg28
I0
sg29
I162779
sg30
I999356
sg31
I1362375
sg32
F0.10006444150032621
sg33
F0.0
ssS'WROBEL BRUCE'
p204
(dp205
g3
g6
sg4
I0
sg5
g6
sg7
F0.0
sg8
I0
sg9
g6
sg10
F0.0
sg11
I00
sg12
g6
sg13
g6
sg15
g6
sg16
F0.0
sg17
g6
sg18
g6
sg19
g6
sg20
g6
sg21
g6
sg22
g6
sg23
F0.0
sg24
I139130
sg25
g6
sg26
g6
sg27
F0.0
sg28
I0
sg29
F0.0
sg30
I0
sg31
I139130
sg32
I0
sg33
F0.0
ssS'LINDHOLM TOD A'
p206
(dp207
g3
g6
sg4
F0.2699622897421934
sg5
I204075
sg7
F0.1680195991916998
sg8
F1.182285
sg9
I57727
sg10
F0.0
sg11
I00
sg12
g6
sg13
S'tod.lindholm@enron.com'
p208
sg15
I175000
sg16
F0.0
sg17
g6
sg18
g6
sg19
g6
sg20
g6
sg21
I2630
sg22
g6
sg23
I200000
sg24
I3064208
sg25
g6
sg26
g6
sg27
I436457
sg28
I514847
sg29
I236457
sg30
I875889
sg31
I2549361
sg32
F0.22833943570475254
sg33
F0.0
ssS'MEYER JEROME J'
p209
(dp210
g3
g6
sg4
F0.0
sg5
g6
sg7
I0
sg8
I0
sg9
I2151
sg10
F0.0
sg11
I00
sg12
I-38346
sg13
g6
sg15
g6
sg16
F0.0
sg17
g6
sg18
g6
sg19
g6
sg20
g6
sg21
g6
sg22
I38346
sg23
F0.0
sg24
I0
sg25
g6
sg26
g6
sg27
F0.0
sg28
I0
sg29
F0.0
sg30
I2151
sg31
g6
sg32
F0.0
sg33
F0.0
ssS'LAY KENNETH L'
p211
(dp212
g3
I4273
sg4
F0.010354607410233042
sg5
I202911
sg7
F0.30058380277872904
sg8
F0.1531887142857143
sg9
I99832
sg10
F0.003744441844137608
sg11
I01
sg12
I-300000
sg13
S'kenneth.lay@enron.com'
p213
sg15
I3600000
sg16
F0.028785396676807865
sg17
g6
sg18
I2411
sg19
I81525000
sg20
I36
sg21
I10359729
sg22
g6
sg23
I7000000
sg24
I49110078
sg25
I123
sg26
I16
sg27
I8072321
sg28
I14761694
sg29
I1072321
sg30
I103559793
sg31
I34348384
sg32
F0.06759380061719514
sg33
F0.5642405803884858
ssS'BUTTS ROBERT H'
p214
(dp215
g3
g6
sg4
F0.20566192349372672
sg5
g6
sg7
F1.0
sg8
F0.348688
sg9
I9410
sg10
F0.0
sg11
I00
sg12
I-75000
sg13
S'bob.butts@enron.com'
p216
sg15
I175000
sg16
F0.0
sg17
g6
sg18
g6
sg19
g6
sg20
g6
sg21
I150656
sg22
g6
sg23
I750000
sg24
I417619
sg25
g6
sg26
g6
sg27
I1011516
sg28
I417619
sg29
I261516
sg30
I1271582
sg31
g6
sg32
F0.5898164648445794
sg33
F0.0
ssS'OLSON CINDY K'
p217
(dp218
g3
I1184
sg4
F0.2490077991339004
sg5
I77716
sg7
F0.372005049941249
sg8
F0.43877066666666664
sg9
I63791
sg10
F0.01266891891891892
sg11
I00
sg12
g6
sg13
S'cindy.olson@enron.com'
p219
sg15
I100000
sg16
F0.016891891891891893
sg17
g6
sg18
I856
sg19
g6
sg20
I52
sg21
I972
sg22
g6
sg23
I750000
sg24
I2606763
sg25
I20
sg26
I15
sg27
I1079078
sg28
I969729
sg29
I329078
sg30
I1321557
sg31
I1637034
sg32
F0.5675124114964394
sg33
F0.722972972972973
ssS'MCDONALD REBECCA'
p220
(dp221
g3
I894
sg4
I0
sg5
g6
sg7
F0.5522548046963224
sg8
I0
sg9
g6
sg10
F0.0011185682326621924
sg11
I00
sg12
g6
sg13
S'rebecca.mcdonald@enron.com'
p222
sg15
g6
sg16
F0.06040268456375839
sg17
g6
sg18
I720
sg19
g6
sg20
I13
sg21
g6
sg22
g6
sg23
F0.0
sg24
I1691366
sg25
I54
sg26
I1
sg27
F0.0
sg28
I934065
sg29
F0.0
sg30
I0
sg31
I757301
sg32
I0
sg33
F0.8053691275167785
ssS'CUMBERLAND MICHAEL S'
p223
(dp224
g3
g6
sg4
F0.2288478580516761
sg5
g6
sg7
F1.0
sg8
F0.56892
sg9
I22344
sg10
F0.0
sg11
I00
sg12
g6
sg13
g6
sg15
I275000
sg16
F0.0
sg17
g6
sg18
g6
sg19
g6
sg20
g6
sg21
I713
sg22
g6
sg23
I325000
sg24
I207940
sg25
g6
sg26
g6
sg27
I509899
sg28
I207940
sg29
I184899
sg30
I807956
sg31
g6
sg32
F0.4022496274549604
sg33
F0.0
ssS'GAHN ROBERT S'
p225
(dp226
g3
g6
sg4
F0.21320363985631563
sg5
I73122
sg7
F0.7387471085067183
sg8
F0.3765822660678212
sg9
I50080
sg10
F0.0
sg11
I00
sg12
I-1042
sg13
g6
sg15
g6
sg16
F0.0
sg17
g6
sg18
g6
sg19
g6
sg20
g6
sg21
I76547
sg22
g6
sg23
I509870
sg24
I318607
sg25
g6
sg26
g6
sg27
I701878
sg28
I235370
sg29
I192008
sg30
I900585
sg31
I83237
sg32
F0.5661542219779365
sg33
F0.0
ssS'MCCLELLAN GEORGE'
p227
(dp228
g3
I1744
sg4
F0.1997424859508494
sg5
g6
sg7
F0.46535937231302904
sg8
F0.2926811111111111
sg9
I228763
sg10
F0.0
sg11
I00
sg12
I-125000
sg13
S'george.mcclellan@enron.com'
p229
sg15
g6
sg16
F0.02981651376146789
sg17
g6
sg18
I1469
sg19
g6
sg20
I49
sg21
I51587
sg22
g6
sg23
I900000
sg24
I947861
sg25
I52
sg26
I0
sg27
I1163413
sg28
I441096
sg29
I263413
sg30
I1318763
sg31
I506765
sg32
F0.6824577274309334
sg33
F0.8423165137614679
ssS'HERMANN ROBERT J'
p230
(dp231
g3
g6
sg4
F0.20244384995001777
sg5
g6
sg7
F0.7193668317039148
sg8
F0.37523285714285715
sg9
I48357
sg10
F0.0
sg11
I00
sg12
I-280000
sg13
S'robert.hermann@enron.com'
p232
sg15
I150000
sg16
F0.0
sg17
g6
sg18
g6
sg19
g6
sg20
g6
sg21
I416441
sg22
g6
sg23
I700000
sg24
I668132
sg25
g6
sg26
g6
sg27
I962663
sg28
I480632
sg29
I262663
sg30
I1297461
sg31
I187500
sg32
F0.5395152532523135
sg33
F0.0
ssS'SCRIMSHAW MATTHEW'
p233
(dp234
g3
g6
sg4
I0
sg5
g6
sg7
F0.0
sg8
I0
sg9
g6
sg10
F0.0
sg11
I00
sg12
g6
sg13
S'matthew.scrimshaw@enron.com'
p235
sg15
g6
sg16
F0.0
sg17
g6
sg18
g6
sg19
g6
sg20
g6
sg21
g6
sg22
g6
sg23
F0.0
sg24
I759557
sg25
g6
sg26
g6
sg27
F0.0
sg28
I0
sg29
F0.0
sg30
I0
sg31
I759557
sg32
I0
sg33
F0.0
ssS'GATHMANN WILLIAM D'
p236
(dp237
g3
g6
sg4
I0
sg5
g6
sg7
F0.13571421227947528
sg8
I0
sg9
g6
sg10
F0.0
sg11
I00
sg12
g6
sg13
g6
sg15
g6
sg16
F0.0
sg17
I-72419
sg18
g6
sg19
g6
sg20
g6
sg21
g6
sg22
g6
sg23
F0.0
sg24
I1945360
sg25
g6
sg26
g6
sg27
F0.0
sg28
I264013
sg29
F0.0
sg30
I0
sg31
I1753766
sg32
I0
sg33
F0.0
ssS'HAEDICKE MARK E'
p238
(dp239
g3
I4009
sg4
F0.09694705841959127
sg5
I2157527
sg7
F0.6526869830928883
sg8
F0.32532608695652177
sg9
I76169
sg10
F0.015215764529807932
sg11
I00
sg12
I-934484
sg13
S'mark.haedicke@enron.com'
p240
sg15
I983346
sg16
F0.04489897730107259
sg17
I-329825
sg18
I1847
sg19
g6
sg20
I1941
sg21
I52382
sg22
g6
sg23
I1150000
sg24
I803094
sg25
I180
sg26
I61
sg27
I1524125
sg28
I524169
sg29
I374125
sg30
I3859065
sg31
I608750
sg32
F0.29799964499172726
sg33
F0.4607133948615615
ssS'BOWEN JR RAYMOND M'
p241
(dp242
g3
I1858
sg4
F0.10436100837994162
sg5
g6
sg7
F1.0
sg8
F0.20637111111111112
sg9
I65907
sg10
F0.008073196986006458
sg11
I01
sg12
I-833
sg13
S'raymond.bowen@enron.com'
p243
sg15
I974293
sg16
F0.07534983853606028
sg17
g6
sg18
I1593
sg19
g6
sg20
I27
sg21
I1621
sg22
g6
sg23
I1350000
sg24
I252055
sg25
I140
sg26
I15
sg27
I1628601
sg28
I252055
sg29
I278601
sg30
I2669589
sg31
g6
sg32
F0.5056958205926081
sg33
F0.8573735199138859
ssS'GILLIS JOHN'
p244
(dp245
g3
g6
sg4
I0
sg5
g6
sg7
F0.8855337980640114
sg8
I0
sg9
g6
sg10
F0.0
sg11
I00
sg12
g6
sg13
g6
sg15
g6
sg16
F0.0
sg17
g6
sg18
g6
sg19
g6
sg20
g6
sg21
g6
sg22
g6
sg23
F0.0
sg24
I85641
sg25
g6
sg26
g6
sg27
F0.0
sg28
I75838
sg29
F0.0
sg30
I0
sg31
I9803
sg32
I0
sg33
F0.0
ssS'FITZGERALD JAY L'
p246
(dp247
g3
I936
sg4
F0.14076122180545456
sg5
g6
sg7
F0.5901515880476377
sg8
F0.56902
sg9
I23870
sg10
F0.008547008547008548
sg11
I00
sg12
g6
sg13
S'jay.fitzgerald@enron.com'
p248
sg15
I556416
sg16
F0.0010683760683760685
sg17
g6
sg18
I723
sg19
g6
sg20
I16
sg21
I285414
sg22
g6
sg23
I350000
sg24
I1621236
sg25
I1
sg26
I8
sg27
I549157
sg28
I956775
sg29
I199157
sg30
I1414857
sg31
I664461
sg32
F0.24737482303865338
sg33
F0.7724358974358975
ssS'MORAN MICHAEL P'
p249
(dp250
g3
I672
sg4
I0
sg5
g6
sg7
F0.7307645348442848
sg8
I0
sg9
g6
sg10
F0.0
sg11
I00
sg12
g6
sg13
S'michael.moran@enron.com'
p251
sg15
g6
sg16
F0.0
sg17
g6
sg18
I127
sg19
g6
sg20
I19
sg21
g6
sg22
g6
sg23
F0.0
sg24
I221141
sg25
I0
sg26
I0
sg27
F0.0
sg28
I161602
sg29
F0.0
sg30
I0
sg31
I59539
sg32
I0
sg33
F0.18898809523809523
ssS'REDMOND BRIAN L'
p252
(dp253
g3
I1671
sg4
F0.8682943449685732
sg5
g6
sg7
F0.048323110685949015
sg8
I0
sg9
I14689
sg10
F0.029323758228605626
sg11
I00
sg12
g6
sg13
S'brian.redmond@enron.com'
p254
sg15
g6
sg16
F0.12208258527827648
sg17
g6
sg18
I1063
sg19
g6
sg20
I221
sg21
g6
sg22
g6
sg23
F0.0
sg24
I7890324
sg25
I204
sg26
I49
sg27
F96840.0
sg28
I381285
sg29
I96840
sg30
I111529
sg31
I7509039
sg32
F0.0
sg33
F0.6361460203470976
ssS'BAZELIDES PHILIP J'
p255
(dp256
g3
g6
sg4
F0.0939595598835533
sg5
I684694
sg7
F0.0
sg8
I0
sg9
g6
sg10
F0.0
sg11
I00
sg12
g6
sg13
g6
sg15
I93750
sg16
F0.0
sg17
g6
sg18
g6
sg19
g6
sg20
g6
sg21
I874
sg22
g6
sg23
F0.0
sg24
I1599641
sg25
g6
sg26
g6
sg27
F80818.0
sg28
I0
sg29
I80818
sg30
I860136
sg31
I1599641
sg32
F0.0
sg33
F0.0
ssS'BELDEN TIMOTHY N'
p257
(dp258
g3
I7991
sg4
F0.03889738132153562
sg5
I2144013
sg7
F0.1418639512741907
sg8
F0.04076172204985182
sg9
I17355
sg10
F0.013515204605180828
sg11
I01
sg12
I-2334434
sg13
S'tim.belden@enron.com'
p259
sg15
g6
sg16
F0.028532098610937303
sg17
g6
sg18
I5521
sg19
g6
sg20
I484
sg21
I210698
sg22
g6
sg23
I5249999
sg24
I1110705
sg25
I228
sg26
I108
sg27
I5463998
sg28
I157569
sg29
I213999
sg30
I5501630
sg31
I953136
sg32
F0.9542624640333864
sg33
F0.6909022650481792
ssS'DURAN WILLIAM D'
p260
(dp261
g3
I904
sg4
F0.10065242637929396
sg5
g6
sg7
F0.11520497772577411
sg8
F0.28092266666666665
sg9
I25785
sg10
F0.00331858407079646
sg11
I00
sg12
g6
sg13
S'w.duran@enron.com'
p262
sg15
I1105218
sg16
F0.1172566371681416
sg17
g6
sg18
I599
sg19
g6
sg20
I12
sg21
I1568
sg22
g6
sg23
I750000
sg24
I1640910
sg25
I106
sg26
I3
sg27
I960692
sg28
I189041
sg29
I210692
sg30
I2093263
sg31
I1451869
sg32
F0.3582922929416896
sg33
F0.6626106194690266
ssS'THORN TERENCE H'
p263
(dp264
g3
I266
sg4
F0.24366917438419755
sg5
I16586
sg7
F0.07582720397459751
sg8
I0
sg9
I46145
sg10
F0.0
sg11
I00
sg12
g6
sg13
S'terence.thorn@enron.com'
p265
sg15
I200000
sg16
F0.0
sg17
g6
sg18
I73
sg19
g6
sg20
I41
sg21
I426629
sg22
g6
sg23
F0.0
sg24
I4817796
sg25
I0
sg26
I0
sg27
F222093.0
sg28
I365320
sg29
I222093
sg30
I911453
sg31
I4452476
sg32
F0.0
sg33
F0.2744360902255639
ssS'FASTOW ANDREW S'
p266
(dp267
g3
g6
sg4
F0.1817998806146489
sg5
g6
sg7
F1.0
sg8
F0.3389984615384615
sg9
I55921
sg10
F0.0
sg11
I01
sg12
I-1386055
sg13
S'andrew.fastow@enron.com'
p268
sg15
I1736055
sg16
F0.0
sg17
g6
sg18
g6
sg19
g6
sg20
g6
sg21
I277464
sg22
g6
sg23
I1300000
sg24
I1794412
sg25
g6
sg26
g6
sg27
I1740698
sg28
I1794412
sg29
I440698
sg30
I2424083
sg31
g6
sg32
F0.5362852674599013
sg33
F0.0
ssS'FOY JOE'
p269
(dp270
g3
I57
sg4
F0.0
sg5
I181755
sg7
F0.0
sg8
I0
sg9
g6
sg10
F0.0
sg11
I00
sg12
g6
sg13
S'tracy.foy@enron.com'
p271
sg15
g6
sg16
F0.0
sg17
g6
sg18
I2
sg19
g6
sg20
I13
sg21
g6
sg22
g6
sg23
F0.0
sg24
I343434
sg25
I0
sg26
I0
sg27
F0.0
sg28
I0
sg29
F0.0
sg30
I181755
sg31
I343434
sg32
F0.0
sg33
F0.03508771929824561
ssS'CALGER CHRISTOPHER F'
p272
(dp273
g3
I2598
sg4
F0.14651951415759315
sg5
g6
sg7
F1.0
sg8
F0.1921512
sg9
I35818
sg10
F0.00962278675904542
sg11
I01
sg12
I-262500
sg13
S'christopher.calger@enron.com'
p274
sg15
I375304
sg16
F0.07659738260200154
sg17
g6
sg18
I2188
sg19
g6
sg20
I144
sg21
I486
sg22
g6
sg23
I1250000
sg24
I126027
sg25
I199
sg26
I25
sg27
I1490189
sg28
I126027
sg29
I240189
sg30
I1639297
sg31
g6
sg32
F0.7625219835087845
sg33
F0.8421862971516552
ssS'RICE KENNETH D'
p275
(dp276
g3
I905
sg4
F0.8328601128601129
sg5
g6
sg7
F0.12191900832466121
sg8
F0.24036342857142856
sg9
I46950
sg10
F0.004419889502762431
sg11
I01
sg12
I-3504386
sg13
S'ken.rice@enron.com'
p277
sg15
I1617011
sg16
F0.04640883977900553
sg17
g6
sg18
I864
sg19
g6
sg20
I18
sg21
I174839
sg22
g6
sg23
I1750000
sg24
I22542539
sg25
I42
sg26
I4
sg27
I2170636
sg28
I2748364
sg29
I420636
sg30
I505050
sg31
I19794175
sg32
F3.465003465003465
sg33
F0.9546961325966851
ssS'KAMINSKI WINCENTY J'
p278
(dp279
g3
I4607
sg4
F0.2531244795601116
sg5
g6
sg7
F0.12912112962930708
sg8
F0.6877525
sg9
I83585
sg10
F0.03711742999782939
sg11
I00
sg12
g6
sg13
S'vince.kaminski@enron.com'
p280
sg15
I323466
sg16
F0.008899500759713479
sg17
g6
sg18
I583
sg19
g6
sg20
I14368
sg21
I4669
sg22
g6
sg23
I400000
sg24
I976037
sg25
I41
sg26
I171
sg27
I675101
sg28
I126027
sg29
I275101
sg30
I1086821
sg31
I850010
sg32
F0.368045887961311
sg33
F0.1265465595832429
ssS'COX DAVID'
p281
(dp282
g3
I102
sg4
F0.28535500044035145
sg5
g6
sg7
F0.7628265268858208
sg8
F0.39286
sg9
I27861
sg10
F0.0392156862745098
sg11
I00
sg12
I-41250
sg13
S'chip.cox@enron.com'
p283
sg15
g6
sg16
F0.0
sg17
g6
sg18
I71
sg19
g6
sg20
I33
sg21
I494
sg22
g6
sg23
I800000
sg24
I495633
sg25
I0
sg26
I4
sg27
I1114288
sg28
I378082
sg29
I314288
sg30
I1101393
sg31
I117551
sg32
F0.7263529003725282
sg33
F0.696078431372549
ssS'OVERDYKE JR JERE C'
p284
(dp285
g3
g6
sg4
F0.38008783483527964
sg5
g6
sg7
F0.2793006836449863
sg8
I0
sg9
I18834
sg10
F0.0
sg11
I00
sg12
g6
sg13
S'jere.overdyke@enron.com'
p286
sg15
I135836
sg16
F0.0
sg17
g6
sg18
g6
sg19
g6
sg20
g6
sg21
I176
sg22
g6
sg23
F0.0
sg24
I7307594
sg25
g6
sg26
g6
sg27
F94941.0
sg28
I2041016
sg29
I94941
sg30
I249787
sg31
I5266578
sg32
F0.0
sg33
F0.0
ssS'PEREIRA PAULO V. FERRAZ'
p287
(dp288
g3
g6
sg4
F0.0
sg5
g6
sg7
I0
sg8
I0
sg9
I27942
sg10
F0.0
sg11
I00
sg12
I-101250
sg13
g6
sg15
g6
sg16
F0.0
sg17
g6
sg18
g6
sg19
g6
sg20
g6
sg21
g6
sg22
I101250
sg23
F0.0
sg24
I0
sg25
g6
sg26
g6
sg27
F0.0
sg28
I0
sg29
F0.0
sg30
I27942
sg31
g6
sg32
F0.0
sg33
F0.0
ssS'STABLER FRANK'
p289
(dp290
g3
g6
sg4
F0.21536264698715119
sg5
g6
sg7
F1.0
sg8
F0.479004
sg9
I16514
sg10
F0.0
sg11
I00
sg12
g6
sg13
S'frank.stabler@enron.com'
p291
sg15
g6
sg16
F0.0
sg17
g6
sg18
g6
sg19
g6
sg20
g6
sg21
I356071
sg22
g6
sg23
I500000
sg24
I511734
sg25
g6
sg26
g6
sg27
I739502
sg28
I511734
sg29
I239502
sg30
I1112087
sg31
g6
sg32
F0.44960511183027946
sg33
F0.0
ssS'SKILLING JEFFREY K'
p292
(dp293
g3
I3627
sg4
F0.12798506826665756
sg5
g6
sg7
F0.2622732438730739
sg8
F0.19843892857142856
sg9
I29336
sg10
F0.008271298593879239
sg11
I01
sg12
g6
sg13
S'jeff.skilling@enron.com'
p294
sg15
I1920000
sg16
F0.0242624758753791
sg17
g6
sg18
I2042
sg19
g6
sg20
I108
sg21
I22122
sg22
g6
sg23
I5600000
sg24
I26093672
sg25
I88
sg26
I30
sg27
I6711258
sg28
I6843672
sg29
I1111258
sg30
I8682716
sg31
I19250000
sg32
F0.6449594804206426
sg33
F0.5629997242900469
ssS'BLAKE JR. NORMAN P'
p295
(dp296
g3
g6
sg4
F0.0
sg5
g6
sg7
I0
sg8
I0
sg9
I1279
sg10
F0.0
sg11
I00
sg12
I-113784
sg13
g6
sg15
g6
sg16
F0.0
sg17
g6
sg18
g6
sg19
g6
sg20
g6
sg21
g6
sg22
I113784
sg23
F0.0
sg24
I0
sg25
g6
sg26
g6
sg27
F0.0
sg28
I0
sg29
F0.0
sg30
I1279
sg31
g6
sg32
F0.0
sg33
F0.0
ssS'SHERRICK JEFFREY B'
p297
(dp298
g3
I613
sg4
I0
sg5
g6
sg7
F0.22155857564770573
sg8
I0
sg9
g6
sg10
F0.02936378466557912
sg11
I00
sg12
g6
sg13
S'jeffrey.sherrick@enron.com'
p299
sg15
g6
sg16
F0.0636215334420881
sg17
g6
sg18
I583
sg19
g6
sg20
I25
sg21
g6
sg22
g6
sg23
F0.0
sg24
I1832468
sg25
I39
sg26
I18
sg27
F0.0
sg28
I405999
sg29
F0.0
sg30
I0
sg31
I1426469
sg32
I0
sg33
F0.9510603588907015
ssS'PRENTICE JAMES'
p300
(dp301
g3
g6
sg4
F0.0
sg5
I564348
sg7
F0.19068618497954412
sg8
I0
sg9
g6
sg10
F0.0
sg11
I00
sg12
g6
sg13
S'james.prentice@enron.com'
p302
sg15
g6
sg16
F0.0
sg17
g6
sg18
g6
sg19
g6
sg20
g6
sg21
g6
sg22
g6
sg23
F0.0
sg24
I1095040
sg25
g6
sg26
g6
sg27
F0.0
sg28
I208809
sg29
F0.0
sg30
I564348
sg31
I886231
sg32
F0.0
sg33
F0.0
ssS'GRAY RODNEY'
p303
(dp304
g3
g6
sg4
F0.005768938951282772
sg5
I93585
sg7
I0
sg8
I0
sg9
g6
sg10
F0.0
sg11
I00
sg12
g6
sg13
g6
sg15
I365625
sg16
F0.0
sg17
g6
sg18
g6
sg19
g6
sg20
g6
sg21
I680833
sg22
g6
sg23
F0.0
sg24
I0
sg25
g6
sg26
g6
sg27
F6615.0
sg28
I0
sg29
I6615
sg30
I1146658
sg31
g6
sg32
F0.0
sg33
F0.0
ssS'PICKERING MARK R'
p305
(dp306
g3
I898
sg4
F0.47237450331364617
sg5
g6
sg7
F0.0
sg8
F2.183456666666667
sg9
I31653
sg10
F0.0
sg11
I00
sg12
g6
sg13
S'mark.pickering@enron.com'
p307
sg15
g6
sg16
F0.0077951002227171495
sg17
g6
sg18
I728
sg19
I400000
sg20
I67
sg21
g6
sg22
g6
sg23
I300000
sg24
I28798
sg25
I7
sg26
I0
sg27
I955037
sg28
I0
sg29
I655037
sg30
I1386690
sg31
I28798
sg32
F0.21634251346732147
sg33
F0.8106904231625836
ssS'NOLES JAMES L'
p308
(dp309
g3
g6
sg4
F0.0
sg5
I774401
sg7
F1.2564543469711558
sg8
I0
sg9
g6
sg10
F0.0
sg11
I00
sg12
g6
sg13
g6
sg15
g6
sg16
F0.0
sg17
I-94556
sg18
g6
sg19
g6
sg20
g6
sg21
g6
sg22
g6
sg23
F0.0
sg24
I368705
sg25
g6
sg26
g6
sg27
F0.0
sg28
I463261
sg29
F0.0
sg30
I774401
sg31
g6
sg32
F0.0
sg33
F0.0
ssS'KEAN STEVEN J'
p310
(dp311
g3
I12754
sg4
F0.23137791684453757
sg5
g6
sg7
F0.6714062989039662
sg8
F0.404338
sg9
I41953
sg10
F0.03034342167163243
sg11
I00
sg12
g6
sg13
S'steven.kean@enron.com'
p312
sg15
I300000
sg16
F0.010976948408342482
sg17
g6
sg18
I3639
sg19
g6
sg20
I6759
sg21
I1231
sg22
g6
sg23
I1000000
sg24
I6153642
sg25
I140
sg26
I387
sg27
I1404338
sg28
I4131594
sg29
I404338
sg30
I1747522
sg31
I2022048
sg32
F0.5722388616566773
sg33
F0.2853222518425592
ssS'FOWLER PEGGY'
p313
(dp314
g3
I517
sg4
I0
sg5
g6
sg7
F0.29721214719421374
sg8
I0
sg9
g6
sg10
F0.0
sg11
I00
sg12
g6
sg13
S'kulvinder.fowler@enron.com'
p315
sg15
g6
sg16
F0.0
sg17
g6
sg18
I10
sg19
g6
sg20
I36
sg21
g6
sg22
g6
sg23
F0.0
sg24
I1884748
sg25
I0
sg26
I0
sg27
F0.0
sg28
I560170
sg29
F0.0
sg30
I0
sg31
I1324578
sg32
I0
sg33
F0.019342359767891684
ssS'WASAFF GEORGE'
p316
(dp317
g3
I400
sg4
F0.2513507895919837
sg5
I831299
sg7
F0.1887579768209618
sg8
F0.7999876923076923
sg9
g6
sg10
F0.0175
sg11
I00
sg12
I-583325
sg13
S'george.wasaff@enron.com'
p318
sg15
I200000
sg16
F0.055
sg17
g6
sg18
I337
sg19
g6
sg20
I30
sg21
I1425
sg22
g6
sg23
I325000
sg24
I2056427
sg25
I22
sg26
I7
sg27
I584996
sg28
I388167
sg29
I259996
sg30
I1034395
sg31
I1668260
sg32
F0.3141933207333755
sg33
F0.8425
ssS'WHITE JR THOMAS E'
p319
(dp320
g3
g6
sg4
F0.1641592899766796
sg5
g6
sg7
F0.9143529803607644
sg8
F0.7056511111111111
sg9
I81353
sg10
F0.0
sg11
I00
sg12
g6
sg13
S'thomas.white@enron.com'
p321
sg15
g6
sg16
F0.0
sg17
g6
sg18
g6
sg19
g6
sg20
g6
sg21
I1085463
sg22
g6
sg23
I450000
sg24
I15144123
sg25
g6
sg26
g6
sg27
I767543
sg28
I13847074
sg29
I317543
sg30
I1934359
sg31
I1297049
sg32
F0.23263520370313887
sg33
F0.0
ssS'CHRISTODOULOU DIOMEDES'
p322
(dp323
g3
g6
sg4
I0
sg5
g6
sg7
F0.15642447989720107
sg8
I0
sg9
g6
sg10
F0.0
sg11
I00
sg12
g6
sg13
S'diomedes.christodoulou@enron.com'
p324
sg15
g6
sg16
F0.0
sg17
g6
sg18
g6
sg19
g6
sg20
g6
sg21
g6
sg22
g6
sg23
F0.0
sg24
I6077885
sg25
g6
sg26
g6
sg27
F0.0
sg28
I950730
sg29
F0.0
sg30
I0
sg31
I5127155
sg32
I0
sg33
F0.0
ssS'ALLEN PHILLIP K'
p325
(dp326
g3
I2902
sg4
F0.04503458847276874
sg5
I2869717
sg7
F0.07286730988163911
sg8
F0.04837245508982036
sg9
I13868
sg10
F0.022398345968297727
sg11
I00
sg12
I-3081055
sg13
S'phillip.allen@enron.com'
p327
sg15
I304805
sg16
F0.016195727084769126
sg17
I-126027
sg18
I1407
sg19
g6
sg20
I2195
sg21
I152
sg22
g6
sg23
I4175000
sg24
I1729541
sg25
I47
sg26
I65
sg27
I4376955
sg28
I126027
sg29
I201955
sg30
I4484442
sg31
I1729541
sg32
F0.9309965431596617
sg33
F0.4848380427291523
ssS'SHARP VICTORIA T'
p328
(dp329
g3
I3136
sg4
F0.15740200988131386
sg5
I187469
sg7
F0.43118291320608093
sg8
F0.41357666666666665
sg9
I116337
sg10
F0.001913265306122449
sg11
I00
sg12
g6
sg13
S'vicki.sharp@enron.com'
p330
sg15
I422158
sg16
F0.007653061224489796
sg17
g6
sg18
I2477
sg19
g6
sg20
I136
sg21
I2401
sg22
g6
sg23
I600000
sg24
I494136
sg25
I24
sg26
I6
sg27
I848146
sg28
I213063
sg29
I248146
sg30
I1576511
sg31
I281073
sg32
F0.38058725882661143
sg33
F0.7898596938775511
ssS'JAEDICKE ROBERT'
p331
(dp332
g3
g6
sg4
F0.0
sg5
g6
sg7
F0.10212623045744065
sg8
I0
sg9
g6
sg10
F0.0
sg11
I00
sg12
I-25000
sg13
g6
sg15
g6
sg16
F0.0
sg17
I-44093
sg18
g6
sg19
g6
sg20
g6
sg21
g6
sg22
I108750
sg23
F0.0
sg24
I431750
sg25
g6
sg26
g6
sg27
F0.0
sg28
I44093
sg29
F0.0
sg30
I83750
sg31
I431750
sg32
F0.0
sg33
F0.0
ssS'WINOKUR JR. HERBERT S'
p333
(dp334
g3
g6
sg4
F0.0
sg5
g6
sg7
I0
sg8
I0
sg9
I1413
sg10
F0.0
sg11
I00
sg12
I-25000
sg13
g6
sg15
g6
sg16
F0.0
sg17
g6
sg18
g6
sg19
g6
sg20
g6
sg21
g6
sg22
I108579
sg23
F0.0
sg24
I0
sg25
g6
sg26
g6
sg27
F0.0
sg28
I0
sg29
F0.0
sg30
I84992
sg31
g6
sg32
F0.0
sg33
F0.0
ssS'BROWN MICHAEL'
p335
(dp336
g3
I1486
sg4
F0.0
sg5
g6
sg7
I0
sg8
I0
sg9
I49288
sg10
F0.0006729475100942127
sg11
I00
sg12
g6
sg13
S'michael.brown@enron.com'
p337
sg15
g6
sg16
F0.008748317631224764
sg17
g6
sg18
I761
sg19
g6
sg20
I41
sg21
g6
sg22
g6
sg23
F0.0
sg24
I0
sg25
I13
sg26
I1
sg27
F0.0
sg28
I0
sg29
F0.0
sg30
I49288
sg31
g6
sg32
F0.0
sg33
F0.5121130551816958
ssS'BADUM JAMES P'
p338
(dp339
g3
g6
sg4
F0.0
sg5
I178980
sg7
F0.0
sg8
I0
sg9
I3486
sg10
F0.0
sg11
I00
sg12
g6
sg13
g6
sg15
g6
sg16
F0.0
sg17
g6
sg18
g6
sg19
g6
sg20
g6
sg21
g6
sg22
g6
sg23
F0.0
sg24
I257817
sg25
g6
sg26
g6
sg27
F0.0
sg28
I0
sg29
F0.0
sg30
I182466
sg31
I257817
sg32
F0.0
sg33
F0.0
ssS'HUGHES JAMES A'
p340
(dp341
g3
I719
sg4
I0
sg5
g6
sg7
F0.3249552483293008
sg8
I0
sg9
g6
sg10
F0.006954102920723227
sg11
I00
sg12
g6
sg13
S'james.hughes@enron.com'
p342
sg15
g6
sg16
F0.048678720445062586
sg17
g6
sg18
I589
sg19
g6
sg20
I34
sg21
g6
sg22
g6
sg23
F0.0
sg24
I1118394
sg25
I35
sg26
I5
sg27
F0.0
sg28
I363428
sg29
F0.0
sg30
I0
sg31
I754966
sg32
I0
sg33
F0.8191933240611962
ssS'REYNOLDS LAWRENCE'
p343
(dp344
g3
g6
sg4
F0.1936726028265416
sg5
I51365
sg7
F0.047723401670009956
sg8
F0.76399
sg9
I8409
sg10
F0.0
sg11
I00
sg12
I-200000
sg13
g6
sg15
I156250
sg16
F0.0
sg17
I-140264
sg18
g6
sg19
g6
sg20
g6
sg21
I202052
sg22
g6
sg23
I100000
sg24
I4221891
sg25
g6
sg26
g6
sg27
I176399
sg28
I201483
sg29
I76399
sg30
I394475
sg31
I4160672
sg32
F0.2535014893212498
sg33
F0.0
ssS'DIMICHELE RICHARD G'
p345
(dp346
g3
g6
sg4
F0.11096758610409556
sg5
g6
sg7
F0.015151515151515152
sg8
F0.262788
sg9
I35812
sg10
F0.0
sg11
I00
sg12
g6
sg13
S'richard.dimichele@enron.com'
p347
sg15
I694862
sg16
F0.0
sg17
g6
sg18
g6
sg19
g6
sg20
g6
sg21
I374689
sg22
g6
sg23
I1000000
sg24
I8317782
sg25
g6
sg26
g6
sg27
I1262788
sg28
I126027
sg29
I262788
sg30
I2368151
sg31
I8191755
sg32
F0.42227037042823706
sg33
F0.0
ssS'BHATNAGAR SANJAY'
p348
(dp349
g3
I523
sg4
F0.0
sg5
g6
sg7
I0
sg8
I0
sg9
g6
sg10
F0.0019120458891013384
sg11
I00
sg12
g6
sg13
S'sanjay.bhatnagar@enron.com'
p350
sg15
g6
sg16
F0.0
sg17
I15456290
sg18
I463
sg19
g6
sg20
I29
sg21
I137864
sg22
I137864
sg23
F0.0
sS'total_stock_value'
p351
I0
sg25
I0
sg26
I1
sg27
F0.0
sg28
I-2604490
sg29
F0.0
sg30
I15456290
sg31
I2604490
sg32
F0.0
sg33
F0.8852772466539197
ssS'CARTER REBECCA C'
p352
(dp353
g3
I312
sg4
F0.5482256568325875
sg5
g6
sg7
I0
sg8
F0.8726966666666667
sg9
g6
sg10
F0.022435897435897436
sg11
I00
sg12
I-159792
sg13
S'rebecca.carter@enron.com'
p354
sg15
I75000
sg16
F0.09294871794871795
sg17
I-307301
sg18
I196
sg19
g6
sg20
I15
sg21
I540
sg22
g6
sg23
I300000
sg24
I0
sg25
I29
sg26
I7
sg27
I561809
sg28
I307301
sg29
I261809
sg30
I477557
sg31
g6
sg32
F0.6281972623163308
sg33
F0.6282051282051282
ssS'BUCHANAN HAROLD G'
p355
(dp356
g3
I1088
sg4
F0.23516811945721608
sg5
g6
sg7
F0.18633816491786634
sg8
F0.496034
sg9
I600
sg10
F0.0
sg11
I00
sg12
g6
sg13
S'john.buchanan@enron.com'
p357
sg15
I304805
sg16
F0.0
sg17
g6
sg18
I23
sg19
g6
sg20
I125
sg21
I1215
sg22
g6
sg23
I500000
sg24
I1014505
sg25
I0
sg26
I0
sg27
I748017
sg28
I189041
sg29
I248017
sg30
I1054637
sg31
I825464
sg32
F0.47409677453000415
sg33
F0.021139705882352942
ssS'YEAP SOON'
p358
(dp359
g3
g6
sg4
F0.0
sg5
g6
sg7
F0.0
sg8
I0
sg9
I55097
sg10
F0.0
sg11
I00
sg12
g6
sg13
g6
sg15
g6
sg16
F0.0
sg17
g6
sg18
g6
sg19
g6
sg20
g6
sg21
g6
sg22
g6
sg23
F0.0
sg24
I192758
sg25
g6
sg26
g6
sg27
F0.0
sg28
I0
sg29
F0.0
sg30
I55097
sg31
I192758
sg32
F0.0
sg33
F0.0
ssS'MURRAY JULIA H'
p360
(dp361
g3
I2192
sg4
F0.2823020115883644
sg5
g6
sg7
F0.3297001812670618
sg8
F0.57321
sg9
I57580
sg10
F0.0009124087591240876
sg11
I00
sg12
g6
sg13
S'julia.murray@enron.com'
p362
sg15
I125000
sg16
F0.005018248175182482
sg17
g6
sg18
I395
sg19
g6
sg20
I45
sg21
I330
sg22
g6
sg23
I400000
sg24
I597461
sg25
I11
sg26
I2
sg27
I629284
sg28
I196983
sg29
I229284
sg30
I812194
sg31
I400478
sg32
F0.4924931728133919
sg33
F0.1802007299270073
ssS'GARLAND C KEVIN'
p363
(dp364
g3
I209
sg4
F0.14806932023551056
sg5
g6
sg7
F0.2900252523843585
sg8
F0.2728776470588235
sg9
I48405
sg10
F0.1291866028708134
sg11
I00
sg12
g6
sg13
S'kevin.garland@enron.com'
p365
sg15
I375304
sg16
F0.04784688995215311
sg17
g6
sg18
I178
sg19
g6
sg20
I44
sg21
I60814
sg22
g6
sg23
I850000
sg24
I896153
sg25
I10
sg26
I27
sg27
I1081946
sg28
I259907
sg29
I231946
sg30
I1566469
sg31
I636246
sg32
F0.5426216541789208
sg33
F0.8516746411483254
ssS'DODSON KEITH'
p366
(dp367
g3
I176
sg4
F0.6907617341947422
sg5
g6
sg7
I0
sg8
F3.1571857142857143
sg9
I28164
sg10
F0.017045454545454544
sg11
I00
sg12
g6
sg13
S'keith.dodson@enron.com'
p368
sg15
g6
sg16
F0.056818181818181816
sg17
g6
sg18
I114
sg19
g6
sg20
I14
sg21
I774
sg22
g6
sg23
I70000
sg24
I0
sg25
I10
sg26
I3
sg27
I291003
sg28
I0
sg29
I221003
sg30
I319941
sg31
g6
sg32
F0.21879033946883958
sg33
F0.6477272727272727
ssS'YEAGER F SCOTT'
p369
(dp370
g3
g6
sg4
F0.4396419650291424
sg5
g6
sg7
F0.30090692633371247
sg8
I0
sg9
I53947
sg10
F0.0
sg11
I01
sg12
g6
sg13
S'scott.yeager@enron.com'
p371
sg15
g6
sg16
F0.0
sg17
g6
sg18
g6
sg19
g6
sg20
g6
sg21
I147950
sg22
g6
sg23
F0.0
sg24
I11884758
sg25
g6
sg26
g6
sg27
F158403.0
sg28
I3576206
sg29
I158403
sg30
I360300
sg31
I8308552
sg32
F0.0
sg33
F0.0
ssS'HIRKO JOSEPH'
p372
(dp373
g3
g6
sg4
F0.0
sg5
I10259
sg7
F0.0
sg8
I0
sg9
I77978
sg10
F0.0
sg11
I01
sg12
g6
sg13
S'joe.hirko@enron.com'
p374
sg15
g6
sg16
F0.0
sg17
g6
sg18
g6
sg19
g6
sg20
g6
sg21
I2856
sg22
g6
sg23
F0.0
sg24
I30766064
sg25
g6
sg26
g6
sg27
F0.0
sg28
I0
sg29
F0.0
sg30
I91093
sg31
I30766064
sg32
F0.0
sg33
F0.0
ssS'DIETRICH JANET R'
p375
(dp376
g3
I2572
sg4
F0.1773175352224516
sg5
g6
sg7
F0.16892938506353858
sg8
F0.41683333333333333
sg9
I3475
sg10
F0.005443234836702955
sg11
I00
sg12
g6
sg13
S'janet.dietrich@enron.com'
p377
sg15
I556416
sg16
F0.11858475894245724
sg17
g6
sg18
I1902
sg19
g6
sg20
I63
sg21
I473
sg22
g6
sg23
I600000
sg24
I1865087
sg25
I305
sg26
I14
sg27
I850100
sg28
I315068
sg29
I250100
sg30
I1410464
sg31
I1550019
sg32
F0.4253919277627788
sg33
F0.73950233281493
ssS'DERRICK JR. JAMES V'
p378
(dp379
g3
I2181
sg4
F0.8936333557781484
sg5
g6
sg7
F0.20237744642638578
sg8
F0.61546875
sg9
I51124
sg10
F0.009170105456212746
sg11
I00
sg12
I-1284000
sg13
S'james.derrick@enron.com'
p380
sg15
I484000
sg16
F0.029344337459880788
sg17
I-1787380
sg18
I1401
sg19
g6
sg20
I909
sg21
I7482
sg22
g6
sg23
I800000
sg24
I8831913
sg25
I64
sg26
I20
sg27
I1292375
sg28
I1787380
sg29
I492375
sg30
I550981
sg31
I8831913
sg32
F1.4519556935720106
sg33
F0.6423658872077029
ssS'FREVERT MARK A'
p381
(dp382
g3
I3275
sg4
F0.06149428518599881
sg5
I6426990
sg7
F0.28645971857147207
sg8
F0.530466
sg9
I86987
sg10
F0.00183206106870229
sg11
I00
sg12
I-3367011
sg13
S'mark.frevert@enron.com'
p383
sg15
I1617011
sg16
F0.07389312977099237
sg17
g6
sg18
I2979
sg19
I2000000
sg20
I21
sg21
I7427621
sg22
g6
sg23
I2000000
sg24
I14622185
sg25
I242
sg26
I6
sg27
I3060932
sg28
I4188667
sg29
I1060932
sg30
I17252530
sg31
I10433518
sg32
F0.1159250266482655
sg33
F0.909618320610687
ssS'PAI LOU L'
p384
(dp385
g3
g6
sg4
F0.08384466458324195
sg5
g6
sg7
F0.35493273344912846
sg8
F0.261879
sg9
I32047
sg10
F0.0
sg11
I00
sg12
g6
sg13
S'lou.pai@enron.com'
p386
sg15
g6
sg16
F0.0
sg17
g6
sg18
g6
sg19
g6
sg20
g6
sg21
I1829457
sg22
g6
sg23
I1000000
sg24
I23817930
sg25
g6
sg26
g6
sg27
I1261879
sg28
I8453763
sg29
I261879
sg30
I3123383
sg31
I15364167
sg32
F0.3201656665224854
sg33
F0.0
ssS'BAY FRANKLIN R'
p387
(dp388
g3
g6
sg4
F0.2895640428369836
sg5
I260455
sg7
F2.3137080648744726
sg8
F0.5991775
sg9
I129142
sg10
F0.0
sg11
I00
sg12
I-201641
sg13
S'frank.bay@enron.com'
p389
sg15
g6
sg16
F0.0
sg17
I-82782
sg18
g6
sg19
g6
sg20
g6
sg21
I69
sg22
g6
sg23
I400000
sg24
I63014
sg25
g6
sg26
g6
sg27
I639671
sg28
I145796
sg29
I239671
sg30
I827696
sg31
g6
sg32
F0.48326921961686414
sg33
F0.0
ssS'HAYSLETT RODERICK J'
p390
(dp391
g3
I2649
sg4
I0
sg5
g6
sg7
F1.0
sg8
I0
sg9
g6
sg10
F0.014345035862589657
sg11
I00
sg12
g6
sg13
S'rod.hayslett@enron.com'
p392
sg15
g6
sg16
F0.01321253303133258
sg17
g6
sg18
I571
sg19
g6
sg20
I1061
sg21
g6
sg22
g6
sg23
F0.0
sg24
I346663
sg25
I35
sg26
I38
sg27
F0.0
sg28
I346663
sg29
F0.0
sg30
I0
sg31
g6
sg32
I0
sg33
F0.21555303888259722
ssS'FUGH JOHN L'
p393
(dp394
g3
g6
sg4
F0.0
sg5
I50591
sg7
F0.0
sg8
I0
sg9
g6
sg10
F0.0
sg11
I00
sg12
g6
sg13
g6
sg15
g6
sg16
F0.0
sg17
g6
sg18
g6
sg19
g6
sg20
g6
sg21
g6
sg22
g6
sg23
F0.0
sg24
I176378
sg25
g6
sg26
g6
sg27
F0.0
sg28
I0
sg29
F0.0
sg30
I50591
sg31
I176378
sg32
F0.0
sg33
F0.0
ssS'FALLON JAMES B'
p395
(dp396
g3
I1755
sg4
F0.08285087886321722
sg5
g6
sg7
F0.5968712900322801
sg8
F0.1218352
sg9
I95924
sg10
F0.021082621082621083
sg11
I00
sg12
g6
sg13
S'jim.fallon@enron.com'
p397
sg15
I374347
sg16
F0.023931623931623933
sg17
g6
sg18
I1604
sg19
g6
sg20
I75
sg21
I401481
sg22
g6
sg23
I2500000
sg24
I2332399
sg25
I42
sg26
I37
sg27
I2804588
sg28
I1392142
sg29
I304588
sg30
I3676340
sg31
I940257
sg32
F0.6800241544579664
sg33
F0.913960113960114
ssS'KOENIG MARK E'
p398
(dp399
g3
I2374
sg4
F0.19525129124535962
sg5
g6
sg7
F0.6501470009973672
sg8
F0.44278
sg9
I127017
sg10
F0.006318449873631003
sg11
I01
sg12
g6
sg13
S'mark.koenig@enron.com'
p400
sg15
I300000
sg16
F0.02232518955349621
sg17
g6
sg18
I2271
sg19
g6
sg20
I61
sg21
I150458
sg22
g6
sg23
I700000
sg24
I1920055
sg25
I53
sg26
I15
sg27
I1009946
sg28
I1248318
sg29
I309946
sg30
I1587421
sg31
I671737
sg32
F0.44096682606567505
sg33
F0.9566133108677338
ssS'SAVAGE FRANK'
p401
(dp402
g3
g6
sg4
F0.0
sg5
g6
sg7
I0
sg8
I0
sg9
g6
sg10
F0.0
sg11
I00
sg12
I-121284
sg13
g6
sg15
g6
sg16
F0.0
sg17
g6
sg18
g6
sg19
g6
sg20
g6
sg21
g6
sg22
I125034
sg23
F0.0
sg24
I0
sg25
g6
sg26
g6
sg27
F0.0
sg28
I0
sg29
F0.0
sg30
I3750
sg31
g6
sg32
F0.0
sg33
F0.0
ssS'IZZO LAWRENCE L'
p403
(dp404
g3
I496
sg4
F0.043076466107225916
sg5
g6
sg7
F0.6279760411547806
sg8
I0
sg9
I28093
sg10
F0.010080645161290322
sg11
I00
sg12
g6
sg13
S'larry.izzo@enron.com'
p405
sg15
I312500
sg16
F0.056451612903225805
sg17
g6
sg18
I437
sg19
g6
sg20
I19
sg21
I1553729
sg22
g6
sg23
F0.0
sg24
I5819980
sg25
I28
sg26
I5
sg27
F85274.0
sg28
I3654808
sg29
I85274
sg30
I1979596
sg31
I2165172
sg32
F0.0
sg33
F0.8810483870967742
ssS'TILNEY ELIZABETH A'
p406
(dp407
g3
I460
sg4
F0.6192847646303266
sg5
g6
sg7
F0.4938110102205229
sg8
F0.82446
sg9
g6
sg10
F0.02391304347826087
sg11
I00
sg12
I-575000
sg13
S'elizabeth.tilney@enron.com'
p408
sg15
I275000
sg16
F0.021739130434782608
sg17
g6
sg18
I379
sg19
g6
sg20
I19
sg21
I152055
sg22
g6
sg23
I300000
sg24
I1168042
sg25
I10
sg26
I11
sg27
I547338
sg28
I576792
sg29
I247338
sg30
I399393
sg31
I591250
sg32
F0.7511398547295521
sg33
F0.8239130434782609
ssS'MARTIN AMANDA K'
p409
(dp410
g3
I1522
sg4
F0.04157087366076144
sg5
I85430
sg7
F0.0
sg8
I0
sg9
I8211
sg10
F0.0
sg11
I00
sg12
g6
sg13
S'a..martin@enron.com'
p411
sg15
I5145434
sg16
F0.005256241787122208
sg17
g6
sg18
I477
sg19
g6
sg20
I230
sg21
I2818454
sg22
g6
sg23
F0.0
sg24
I2070306
sg25
I8
sg26
I0
sg27
F349487.0
sg28
I0
sg29
I349487
sg30
I8407016
sg31
I2070306
sg32
F0.0
sg33
F0.31340341655716164
ssS'BUY RICHARD B'
p412
(dp413
g3
I3523
sg4
F0.14031740856865596
sg5
I649584
sg7
F0.26176944493637627
sg8
F0.36727333333333334
sg9
g6
sg10
F0.02015327845586148
sg11
I00
sg12
I-694862
sg13
S'rick.buy@enron.com'
p414
sg15
I769862
sg16
F0.04428044280442804
sg17
g6
sg18
I2333
sg19
g6
sg20
I1053
sg21
I400572
sg22
g6
sg23
I900000
sg24
I3444470
sg25
I156
sg26
I71
sg27
I1230546
sg28
I901657
sg29
I330546
sg30
I2355702
sg31
I2542813
sg32
F0.38205171961479
sg33
F0.6622196991200682
ssS'GRAMM WENDY L'
p415
(dp416
g3
g6
sg4
F0.0
sg5
g6
sg7
I0
sg8
I0
sg9
g6
sg10
F0.0
sg11
I00
sg12
g6
sg13
g6
sg15
g6
sg16
F0.0
sg17
g6
sg18
g6
sg19
g6
sg20
g6
sg21
g6
sg22
I119292
sg23
F0.0
sg24
I0
sg25
g6
sg26
g6
sg27
F0.0
sg28
I0
sg29
F0.0
sg30
I119292
sg31
g6
sg32
F0.0
sg33
F0.0
ssS'CAUSEY RICHARD A'
p417
(dp418
g3
I1892
sg4
F0.22217376460729532
sg5
g6
sg7
F1.0
sg8
F0.415189
sg9
I30674
sg10
F0.006342494714587738
sg11
I01
sg12
I-235000
sg13
S'richard.causey@enron.com'
p419
sg15
I350000
sg16
F0.0306553911205074
sg17
g6
sg18
I1585
sg19
g6
sg20
I49
sg21
I307895
sg22
g6
sg23
I1000000
sg24
I2502063
sg25
I58
sg26
I12
sg27
I1415189
sg28
I2502063
sg29
I415189
sg30
I1868758
sg31
g6
sg32
F0.5351147660638778
sg33
F0.837737843551797
ssS'TAYLOR MITCHELL S'
p420
(dp421
g3
I533
sg4
F0.24272259607948654
sg5
I227449
sg7
F0.15054493293543902
sg8
F0.4420233333333333
sg9
g6
sg10
F0.0
sg11
I00
sg12
g6
sg13
S'mitchell.taylor@enron.com'
p422
sg15
g6
sg16
F0.0
sg17
g6
sg18
I300
sg19
g6
sg20
I29
sg21
g6
sg22
g6
sg23
I600000
sg24
I3745048
sg25
I0
sg26
I0
sg27
I865214
sg28
I563798
sg29
I265214
sg30
I1092663
sg31
I3181250
sg32
F0.5491171568910085
sg33
F0.5628517823639775
ssS'DONAHUE JR JEFFREY M'
p423
(dp424
g3
I865
sg4
F0.3181248287201973
sg5
g6
sg7
F0.2914629949638664
sg8
F0.34825125
sg9
I96268
sg10
F0.012716763005780347
sg11
I00
sg12
I-300000
sg13
S'jeff.donahue@enron.com'
p425
sg15
g6
sg16
F0.21734104046242775
sg17
g6
sg18
I772
sg19
g6
sg20
I22
sg21
I891
sg22
g6
sg23
I800000
sg24
I1080988
sg25
I188
sg26
I11
sg27
I1078601
sg28
I315068
sg29
I278601
sg30
I875760
sg31
I765920
sg32
F0.9134922809902256
sg33
F0.892485549132948
ssS'GLISAN JR BEN F'
p426
(dp427
g3
I873
sg4
F0.21612705968164342
sg5
g6
sg7
F0.5058378053448351
sg8
F0.45829166666666665
sg9
I125978
sg10
F0.006872852233676976
sg11
I01
sg12
g6
sg13
S'ben.glisan@enron.com'
p428
sg15
I71023
sg16
F0.05956471935853379
sg17
g6
sg18
I874
sg19
g6
sg20
I16
sg21
I200308
sg22
g6
sg23
I600000
sg24
I778546
sg25
I52
sg26
I6
sg27
I874975
sg28
I393818
sg29
I274975
sg30
I1272284
sg31
I384728
sg32
F0.4715928204709012
sg33
F1.0011454753722795
ss.