(lp0
S'poi'
p1
aS'salary'
p2
aS'bonus'
p3
aS'deferral_payments'
p4
aS'deferred_income'
p5
aS'exercised_stock_options'
p6
aS'loan_advances'
p7
aS'long_term_incentive'
p8
aS'restricted_stock'
p9
aS'total_payments'
p10
aS'total_stock_value'
p11
aS'from_messages'
p12
aS'from_poi_to_this_person'
p13
aS'from_this_person_to_poi'
p14
aS'shared_receipt_with_poi'
p15
aS'res_total_stock_ratio'
p16
aS'salary_total_ratio'
p17
aS'bonus_total_ratio'
p18
aS'from_fraction_messages'
p19
aS'to_fraction_messages'
p20
aS'salary_bonus_ratio'
p21
a.